target datalayout = "e-m:e-p270:32:32-p271:32:32-p272:64:64-i64:64-i128:128-f80:128-n8:16:32:64-S128"
target triple = "x86_64-pc-linux-gnu"

%struct.cli_ac_patt = type { ptr, ptr, [3 x i16], [3 x i16], i32, i32, i32, [3 x i32], [2 x i16], ptr, ptr, [2 x i16], [2 x i16], i16, i16, i16, i16, ptr, i16, i16, [4 x i32], i32, i32, i32, i8, i8 }
%struct.cli_ac_list = type { ptr, %union.anon.1, ptr }
%union.anon.1 = type { ptr }

; Function Attrs: nounwind uwtable
define internal i32 @sort_heads_by_partno_fn(ptr noundef %0, ptr noundef %1) #0 {
  %3 = alloca i32, align 4
  %4 = alloca ptr, align 8
  %5 = alloca ptr, align 8
  %6 = alloca ptr, align 8
  %7 = alloca ptr, align 8
  %8 = alloca ptr, align 8
  %9 = alloca ptr, align 8
  %10 = alloca i32, align 4
  store ptr %0, ptr %4, align 8, !tbaa !142
  store ptr %1, ptr %5, align 8, !tbaa !142
  call void @llvm.lifetime.start.p0(i64 8, ptr %6) #16
  %11 = load ptr, ptr %4, align 8, !tbaa !142
  %12 = load ptr, ptr %11, align 8, !tbaa !54
  store ptr %12, ptr %6, align 8, !tbaa !54
  call void @llvm.lifetime.start.p0(i64 8, ptr %7) #16
  %13 = load ptr, ptr %5, align 8, !tbaa !142
  %14 = load ptr, ptr %13, align 8, !tbaa !54
  store ptr %14, ptr %7, align 8, !tbaa !54
  call void @llvm.lifetime.start.p0(i64 8, ptr %8) #16
  %15 = load ptr, ptr %6, align 8, !tbaa !54
  %16 = getelementptr inbounds nuw %struct.cli_ac_list, ptr %15, i32 0, i32 0
  %17 = load ptr, ptr %16, align 8, !tbaa !151
  store ptr %17, ptr %8, align 8, !tbaa !8
  call void @llvm.lifetime.start.p0(i64 8, ptr %9) #16
  %18 = load ptr, ptr %7, align 8, !tbaa !54
  %19 = getelementptr inbounds nuw %struct.cli_ac_list, ptr %18, i32 0, i32 0
  %20 = load ptr, ptr %19, align 8, !tbaa !151
  store ptr %20, ptr %9, align 8, !tbaa !8
  br label %21

21:                                               ; preds = %2
  %22 = load ptr, ptr %8, align 8, !tbaa !8
  %23 = getelementptr inbounds nuw %struct.cli_ac_patt, ptr %22, i32 0, i32 14
  %24 = load i16, ptr %23, align 2, !tbaa !153
  %25 = zext i16 %24 to i32
  %26 = load ptr, ptr %9, align 8, !tbaa !8
  %27 = getelementptr inbounds nuw %struct.cli_ac_patt, ptr %26, i32 0, i32 14
  %28 = load i16, ptr %27, align 2, !tbaa !153
  %29 = zext i16 %28 to i32
  %30 = icmp slt i32 %25, %29
  br i1 %30, label %31, label %32

31:                                               ; preds = %21
  store i32 -1, ptr %3, align 4
  store i32 1, ptr %10, align 4
  br label %86

32:                                               ; preds = %21
  %33 = load ptr, ptr %8, align 8, !tbaa !8
  %34 = getelementptr inbounds nuw %struct.cli_ac_patt, ptr %33, i32 0, i32 14
  %35 = load i16, ptr %34, align 2, !tbaa !153
  %36 = zext i16 %35 to i32
  %37 = load ptr, ptr %9, align 8, !tbaa !8
  %38 = getelementptr inbounds nuw %struct.cli_ac_patt, ptr %37, i32 0, i32 14
  %39 = load i16, ptr %38, align 2, !tbaa !153
  %40 = zext i16 %39 to i32
  %41 = icmp sgt i32 %36, %40
  br i1 %41, label %42, label %43

42:                                               ; preds = %32
  store i32 1, ptr %3, align 4
  store i32 1, ptr %10, align 4
  br label %86

43:                                               ; preds = %32
  br label %44

44:                                               ; preds = %43
  br label %45

45:                                               ; preds = %44
  br label %46

46:                                               ; preds = %65, %45
  br label %47

47:                                               ; preds = %46
  %48 = load ptr, ptr %6, align 8, !tbaa !54
  %49 = getelementptr inbounds nuw %struct.cli_ac_list, ptr %48, i32 0, i32 2
  %50 = load ptr, ptr %49, align 8, !tbaa !154
  %51 = icmp ne ptr %50, null
  br i1 %51, label %59, label %52

52:                                               ; preds = %47
  %53 = load ptr, ptr %7, align 8, !tbaa !54
  %54 = getelementptr inbounds nuw %struct.cli_ac_list, ptr %53, i32 0, i32 2
  %55 = load ptr, ptr %54, align 8, !tbaa !154
  %56 = icmp ne ptr %55, null
  br i1 %56, label %58, label %57

57:                                               ; preds = %52
  br label %72

58:                                               ; preds = %52
  store i32 1, ptr %3, align 4
  store i32 1, ptr %10, align 4
  br label %86

59:                                               ; preds = %47
  %60 = load ptr, ptr %7, align 8, !tbaa !54
  %61 = getelementptr inbounds nuw %struct.cli_ac_list, ptr %60, i32 0, i32 2
  %62 = load ptr, ptr %61, align 8, !tbaa !154
  %63 = icmp ne ptr %62, null
  br i1 %63, label %65, label %64

64:                                               ; preds = %59
  store i32 -1, ptr %3, align 4
  store i32 1, ptr %10, align 4
  br label %86

65:                                               ; preds = %59
  %66 = load ptr, ptr %6, align 8, !tbaa !54
  %67 = getelementptr inbounds nuw %struct.cli_ac_list, ptr %66, i32 0, i32 2
  %68 = load ptr, ptr %67, align 8, !tbaa !154
  store ptr %68, ptr %6, align 8, !tbaa !54
  %69 = load ptr, ptr %7, align 8, !tbaa !54
  %70 = getelementptr inbounds nuw %struct.cli_ac_list, ptr %69, i32 0, i32 2
  %71 = load ptr, ptr %70, align 8, !tbaa !154
  store ptr %71, ptr %7, align 8, !tbaa !54
  br label %46

72:                                               ; preds = %57
  br label %73

73:                                               ; preds = %72
  %74 = load ptr, ptr %8, align 8, !tbaa !8
  %75 = load ptr, ptr %9, align 8, !tbaa !8
  %76 = icmp ult ptr %74, %75
  br i1 %76, label %77, label %78

77:                                               ; preds = %73
  store i32 -1, ptr %3, align 4
  store i32 1, ptr %10, align 4
  br label %86

78:                                               ; preds = %73
  %79 = load ptr, ptr %8, align 8, !tbaa !8
  %80 = load ptr, ptr %9, align 8, !tbaa !8
  %81 = icmp ugt ptr %79, %80
  br i1 %81, label %82, label %83

82:                                               ; preds = %78
  store i32 1, ptr %3, align 4
  store i32 1, ptr %10, align 4
  br label %86

83:                                               ; preds = %78
  br label %84

84:                                               ; preds = %83
  br label %85

85:                                               ; preds = %84
  store i32 0, ptr %3, align 4
  store i32 1, ptr %10, align 4
  br label %86

86:                                               ; preds = %85, %82, %77, %64, %58, %42, %31
  call void @llvm.lifetime.end.p0(i64 8, ptr %9) #16
  call void @llvm.lifetime.end.p0(i64 8, ptr %8) #16
  call void @llvm.lifetime.end.p0(i64 8, ptr %7) #16
  call void @llvm.lifetime.end.p0(i64 8, ptr %6) #16
  %87 = load i32, ptr %3, align 4
  ret i32 %87
}