; Function Attrs: nofree norecurse nosync nounwind memory(read, inaccessiblemem: none) uwtable
define internal range(i32 -1, 2) i32 @sort_heads_by_partno_fn(ptr noundef readonly captures(none) %0, ptr noundef readonly captures(none) %1) #15 {
  %3 = load ptr, ptr %0, align 8, !tbaa !45
  %4 = load ptr, ptr %1, align 8, !tbaa !45
  %5 = load ptr, ptr %3, align 8, !tbaa !39
  %6 = load ptr, ptr %4, align 8, !tbaa !39
  %7 = getelementptr inbounds nuw i8, ptr %5, i64 82
  %8 = load i16, ptr %7, align 2, !tbaa !135
  %9 = getelementptr inbounds nuw i8, ptr %6, i64 82
  %10 = load i16, ptr %9, align 2, !tbaa !135
  %11 = icmp ult i16 %8, %10
  br i1 %11, label %.loopexit, label %12

12:                                               ; preds = %2
  %13 = icmp ugt i16 %8, %10
  br i1 %13, label %.loopexit, label %.preheader

.preheader:                                       ; preds = %12, %19
  %.018 = phi ptr [ %17, %19 ], [ %4, %12 ]
  %.017 = phi ptr [ %15, %19 ], [ %3, %12 ]
  %14 = getelementptr inbounds nuw i8, ptr %.017, i64 16
  %15 = load ptr, ptr %14, align 8, !tbaa !59
  %.not = icmp eq ptr %15, null
  %16 = getelementptr inbounds nuw i8, ptr %.018, i64 16
  %17 = load ptr, ptr %16, align 8, !tbaa !59
  %.not25 = icmp eq ptr %17, null
  br i1 %.not, label %18, label %19

18:                                               ; preds = %.preheader
  br i1 %.not25, label %20, label %.loopexit

19:                                               ; preds = %.preheader
  br i1 %.not25, label %.loopexit, label %.preheader

20:                                               ; preds = %18
  %21 = icmp ult ptr %5, %6
  br i1 %21, label %.loopexit, label %22

22:                                               ; preds = %20
  %23 = icmp ugt ptr %5, %6
  %. = zext i1 %23 to i32
  br label %.loopexit

.loopexit:                                        ; preds = %19, %22, %20, %18, %12, %2
  %.0 = phi i32 [ -1, %2 ], [ 1, %12 ], [ 1, %18 ], [ -1, %20 ], [ %., %22 ], [ -1, %19 ]
  ret i32 %.0
}